target datalayout = "e-m:e-p270:32:32-p271:32:32-p272:64:64-i64:64-i128:128-f80:128-n8:16:32:64-S128"
target triple = "x86_64-pc-linux-gnu"

%struct.recent_settings_tag = type { i32, i32, i32, i32, i32, i32, i32, i32, i32, i32, i32, i32, i32, i32, i32, i32, i32, i32, i32, i32, i32, i32, i32, i32, i32, i32, i32, i32, i32, i32, i32, i32, i32, i32, i32, i32, ptr, ptr, ptr, i32, i32, ptr, ptr, ptr, ptr, ptr, ptr, i32, ptr, ptr, ptr }
%class.QColor = type <{ i32, %"union.QColor::CT", [2 x i8] }>
%"union.QColor::CT" = type { %struct.anon }
%struct.anon = type { i16, i16, i16, i16, i16 }
%class.ByteViewText = type { %class.QAbstractScrollArea, %class.IDataPrintable, ptr, %class.QByteArray, %class.QColor, %class.QColor, i32, %class.QMenu, i32, i32, i32, i32, i32, i32, i32, i32, i8, i8, i8, i32, i32, i32, %class.QList, i8, %class.QList.5, ptr, ptr, ptr, ptr, ptr, ptr, ptr, ptr }
%class.QAbstractScrollArea = type { %class.QFrame }
%class.QFrame = type { %class.QWidget }
%class.QWidget = type { %class.QObject, %class.QPaintDevice.base, ptr }
%class.QObject = type { ptr, %class.QScopedPointer }
%class.QScopedPointer = type { ptr }
%class.QPaintDevice.base = type <{ ptr, i16 }>
%class.IDataPrintable = type { ptr }
%class.QByteArray = type { %struct.QArrayDataPointer }
%struct.QArrayDataPointer = type { ptr, ptr, i64 }
%class.QMenu = type { %class.QWidget }
%class.QList = type { %struct.QArrayDataPointer.4 }
%struct.QArrayDataPointer.4 = type { ptr, ptr, i64 }
%class.QList.5 = type { %struct.QArrayDataPointer.8 }
%struct.QArrayDataPointer.8 = type { ptr, ptr, i64 }

@recent = external global %struct.recent_settings_tag, align 8
@_ZN12ByteViewText19separator_interval_E = global i32 0, align 4
@.str.10 = private unnamed_addr constant [1 x i8] zeroinitializer, align 1
@.str.11 = private unnamed_addr constant [33 x i8] c"ui/qt/widgets/byte_view_text.cpp\00", align 1
@.str.12 = private unnamed_addr constant [31 x i8] c"assertion \22not reached\22 failed\00", align 1
@__func__._ZN12ByteViewText17addHexFormatRangeER5QListIN11QTextLayout11FormatRangeEEiiiiNS_13HighlightModeE = private unnamed_addr constant [18 x i8] c"addHexFormatRange\00", align 1

; Function Attrs: mustprogress nounwind uwtable
define linkonce_odr noundef ptr @_ZNK17QArrayDataPointerIcEptEv(ptr noundef nonnull align 8 dereferenceable(24) %0) #2 comdat align 2 {
  %2 = alloca ptr, align 8
  store ptr %0, ptr %2, align 8
  %3 = load ptr, ptr %2, align 8
  ret ptr %3
}

; Function Attrs: mustprogress nounwind uwtable
define linkonce_odr noundef i64 @_ZNK10QByteArray4sizeEv(ptr noundef nonnull align 8 dereferenceable(24) %0) #2 comdat align 2 {
  %2 = alloca ptr, align 8
  store ptr %0, ptr %2, align 8
  %3 = load ptr, ptr %2, align 8
  %4 = getelementptr inbounds %class.QByteArray, ptr %3, i32 0, i32 0
  %5 = call noundef ptr @_ZNK17QArrayDataPointerIcEptEv(ptr noundef nonnull align 8 dereferenceable(24) %4) #14
  %6 = getelementptr inbounds %struct.QArrayDataPointer, ptr %5, i32 0, i32 2
  %7 = load i64, ptr %6, align 8
  ret i64 %7
}

; Function Attrs: mustprogress uwtable
define linkonce_odr noundef zeroext i1 @_ZNK10QByteArray7isEmptyEv(ptr noundef nonnull align 8 dereferenceable(24) %0) #0 comdat align 2 {
  %2 = alloca ptr, align 8
  store ptr %0, ptr %2, align 8
  %3 = load ptr, ptr %2, align 8
  %4 = call noundef i64 @_ZNK10QByteArray4sizeEv(ptr noundef nonnull align 8 dereferenceable(24) %3)
  %5 = icmp eq i64 %4, 0
  ret i1 %5
}

; Function Attrs: mustprogress uwtable
define noundef i32 @_ZN12ByteViewText11offsetCharsEb(ptr noundef nonnull align 8 dereferenceable(328) %0, i1 noundef zeroext %1) #0 align 2 {
  %3 = alloca i32, align 4
  %4 = alloca ptr, align 8
  %5 = alloca i8, align 1
  %6 = alloca i32, align 4
  store ptr %0, ptr %4, align 8
  %7 = zext i1 %1 to i8
  store i8 %7, ptr %5, align 1
  %8 = load ptr, ptr %4, align 8
  %9 = load i8, ptr %5, align 1
  %10 = trunc i8 %9 to i1
  %11 = select i1 %10, i32 2, i32 0
  store i32 %11, ptr %6, align 4
  %12 = getelementptr inbounds %class.ByteViewText, ptr %8, i32 0, i32 3
  %13 = call noundef zeroext i1 @_ZNK10QByteArray7isEmptyEv(ptr noundef nonnull align 8 dereferenceable(24) %12)
  br i1 %13, label %21, label %14

14:                                               ; preds = %2
  %15 = getelementptr inbounds %class.ByteViewText, ptr %8, i32 0, i32 3
  %16 = call noundef i64 @_ZNK10QByteArray4sizeEv(ptr noundef nonnull align 8 dereferenceable(24) %15)
  %17 = icmp sgt i64 %16, 65535
  br i1 %17, label %18, label %21

18:                                               ; preds = %14
  %19 = load i32, ptr %6, align 4
  %20 = add i32 8, %19
  store i32 %20, ptr %3, align 4
  br label %24

21:                                               ; preds = %14, %2
  %22 = load i32, ptr %6, align 4
  %23 = add i32 4, %22
  store i32 %23, ptr %3, align 4
  br label %24

24:                                               ; preds = %21, %18
  %25 = load i32, ptr %3, align 4
  ret i32 %25
}

; Function Attrs: mustprogress nounwind uwtable
define linkonce_odr noundef nonnull align 4 dereferenceable(4) ptr @_Z4qMinIiERKT_S2_S2_(ptr noundef nonnull align 4 dereferenceable(4) %0, ptr noundef nonnull align 4 dereferenceable(4) %1) #2 comdat {
  %3 = alloca ptr, align 8
  %4 = alloca ptr, align 8
  store ptr %0, ptr %3, align 8
  store ptr %1, ptr %4, align 8
  %5 = load ptr, ptr %3, align 8
  %6 = load i32, ptr %5, align 4
  %7 = load ptr, ptr %4, align 8
  %8 = load i32, ptr %7, align 4
  %9 = icmp slt i32 %6, %8
  br i1 %9, label %10, label %12

10:                                               ; preds = %2
  %11 = load ptr, ptr %3, align 8
  br label %14

12:                                               ; preds = %2
  %13 = load ptr, ptr %4, align 8
  br label %14

14:                                               ; preds = %12, %10
  %15 = phi ptr [ %11, %10 ], [ %13, %12 ]
  ret ptr %15
}

; Function Attrs: mustprogress nounwind uwtable
define linkonce_odr noundef nonnull align 4 dereferenceable(4) ptr @_Z4qMaxIiERKT_S2_S2_(ptr noundef nonnull align 4 dereferenceable(4) %0, ptr noundef nonnull align 4 dereferenceable(4) %1) #2 comdat {
  %3 = alloca ptr, align 8
  %4 = alloca ptr, align 8
  store ptr %0, ptr %3, align 8
  store ptr %1, ptr %4, align 8
  %5 = load ptr, ptr %3, align 8
  %6 = load i32, ptr %5, align 4
  %7 = load ptr, ptr %4, align 8
  %8 = load i32, ptr %7, align 4
  %9 = icmp slt i32 %6, %8
  br i1 %9, label %10, label %12

10:                                               ; preds = %2
  %11 = load ptr, ptr %4, align 8
  br label %14

12:                                               ; preds = %2
  %13 = load ptr, ptr %3, align 8
  br label %14

14:                                               ; preds = %12, %10
  %15 = phi ptr [ %11, %10 ], [ %13, %12 ]
  ret ptr %15
}

; Function Attrs: mustprogress uwtable
define noundef zeroext i1 @_ZN12ByteViewText17addHexFormatRangeER5QListIN11QTextLayout11FormatRangeEEiiiiNS_13HighlightModeE(ptr noundef nonnull align 8 dereferenceable(328) %0, ptr noundef nonnull align 8 dereferenceable(24) %1, i32 noundef %2, i32 noundef %3, i32 noundef %4, i32 noundef %5, i32 noundef %6) #0 align 2 {
  %8 = alloca i1, align 1
  %9 = alloca ptr, align 8
  %10 = alloca ptr, align 8
  %11 = alloca i32, align 4
  %12 = alloca i32, align 4
  %13 = alloca i32, align 4
  %14 = alloca i32, align 4
  %15 = alloca i32, align 4
  %16 = alloca i32, align 4
  %17 = alloca i32, align 4
  %18 = alloca i32, align 4
  %19 = alloca i32, align 4
  %20 = alloca i32, align 4
  %21 = alloca i32, align 4
  %22 = alloca i32, align 4
  store ptr %0, ptr %9, align 8
  store ptr %1, ptr %10, align 8
  store i32 %2, ptr %11, align 4
  store i32 %3, ptr %12, align 4
  store i32 %4, ptr %13, align 4
  store i32 %5, ptr %14, align 4
  store i32 %6, ptr %15, align 4
  %23 = load ptr, ptr %9, align 8
  %24 = load i32, ptr %11, align 4
  %25 = load i32, ptr %12, align 4
  %26 = add i32 %24, %25
  %27 = sub i32 %26, 1
  store i32 %27, ptr %16, align 4
  %28 = load i32, ptr %11, align 4
  %29 = icmp slt i32 %28, 0
  br i1 %29, label %33, label %30

30:                                               ; preds = %7
  %31 = load i32, ptr %12, align 4
  %32 = icmp slt i32 %31, 1
  br i1 %32, label %33, label %34

33:                                               ; preds = %30, %7
  store i1 false, ptr %8, align 1
  br label %89

34:                                               ; preds = %30
  %35 = load i32, ptr %11, align 4
  %36 = load i32, ptr %14, align 4
  %37 = icmp sgt i32 %35, %36
  br i1 %37, label %38, label %43

38:                                               ; preds = %34
  %39 = load i32, ptr %16, align 4
  %40 = load i32, ptr %13, align 4
  %41 = icmp slt i32 %39, %40
  br i1 %41, label %42, label %43

42:                                               ; preds = %38
  store i1 false, ptr %8, align 1
  br label %89

43:                                               ; preds = %38, %34
  %44 = load i32, ptr getelementptr inbounds (%struct.recent_settings_tag, ptr @recent, i32 0, i32 14), align 8
  switch i32 %44, label %48 [
    i32 0, label %45
    i32 1, label %46
    i32 2, label %47
    i32 3, label %47
  ]

45:                                               ; preds = %43
  store i32 2, ptr %17, align 4
  br label %49

46:                                               ; preds = %43
  store i32 8, ptr %17, align 4
  br label %49

47:                                               ; preds = %43, %43
  store i32 3, ptr %17, align 4
  br label %49

48:                                               ; preds = %43
  call void (ptr, i32, ptr, i64, ptr, ptr, ...) @ws_log_fatal_full(ptr noundef @.str.10, i32 noundef 7, ptr noundef @.str.11, i64 noundef 646, ptr noundef @__func__._ZN12ByteViewText17addHexFormatRangeER5QListIN11QTextLayout11FormatRangeEEiiiiNS_13HighlightModeE, ptr noundef @.str.12) #21
  unreachable

49:                                               ; preds = %47, %46, %45
  %50 = load i32, ptr %17, align 4
  %51 = add i32 %50, 1
  store i32 %51, ptr %18, align 4
  %52 = call noundef nonnull align 4 dereferenceable(4) ptr @_Z4qMaxIiERKT_S2_S2_(ptr noundef nonnull align 4 dereferenceable(4) %13, ptr noundef nonnull align 4 dereferenceable(4) %11)
  %53 = load i32, ptr %52, align 4
  %54 = load i32, ptr %13, align 4
  %55 = sub i32 %53, %54
  store i32 %55, ptr %19, align 4
  %56 = call noundef nonnull align 4 dereferenceable(4) ptr @_Z4qMinIiERKT_S2_S2_(ptr noundef nonnull align 4 dereferenceable(4) %14, ptr noundef nonnull align 4 dereferenceable(4) %16)
  %57 = load i32, ptr %56, align 4
  %58 = load i32, ptr %13, align 4
  %59 = sub i32 %57, %58
  store i32 %59, ptr %20, align 4
  %60 = call noundef i32 @_ZN12ByteViewText11offsetCharsEb(ptr noundef nonnull align 8 dereferenceable(328) %23, i1 noundef zeroext true)
  %61 = add i32 %60, 1
  %62 = load i32, ptr %19, align 4
  %63 = load i32, ptr @_ZN12ByteViewText19separator_interval_E, align 4
  %64 = sdiv i32 %62, %63
  %65 = add i32 %61, %64
  %66 = load i32, ptr %19, align 4
  %67 = load i32, ptr %18, align 4
  %68 = mul i32 %66, %67
  %69 = add i32 %65, %68
  store i32 %69, ptr %21, align 4
  %70 = call noundef i32 @_ZN12ByteViewText11offsetCharsEb(ptr noundef nonnull align 8 dereferenceable(328) %23, i1 noundef zeroext true)
  %71 = add i32 %70, 1
  %72 = load i32, ptr %20, align 4
  %73 = load i32, ptr @_ZN12ByteViewText19separator_interval_E, align 4
  %74 = sdiv i32 %72, %73
  %75 = add i32 %71, %74
  %76 = load i32, ptr %20, align 4
  %77 = load i32, ptr %18, align 4
  %78 = mul i32 %76, %77
  %79 = add i32 %75, %78
  %80 = load i32, ptr %17, align 4
  %81 = add i32 %79, %80
  %82 = load i32, ptr %21, align 4
  %83 = sub i32 %81, %82
  store i32 %83, ptr %22, align 4
  %84 = load ptr, ptr %10, align 8
  %85 = load i32, ptr %21, align 4
  %86 = load i32, ptr %22, align 4
  %87 = load i32, ptr %15, align 4
  %88 = call noundef zeroext i1 @_ZN12ByteViewText14addFormatRangeER5QListIN11QTextLayout11FormatRangeEEiiNS_13HighlightModeE(ptr noundef nonnull align 8 dereferenceable(328) %23, ptr noundef nonnull align 8 dereferenceable(24) %84, i32 noundef %85, i32 noundef %86, i32 noundef %87)
  store i1 %88, ptr %8, align 1
  br label %89

89:                                               ; preds = %49, %42, %33
  %90 = load i1, ptr %8, align 1
  ret i1 %90
}