; Function Attrs: mustprogress uwtable
define noundef zeroext i1 @_ZN12ByteViewText17addHexFormatRangeER5QListIN11QTextLayout11FormatRangeEEiiiiNS_13HighlightModeE(ptr noundef nonnull align 8 dereferenceable(328) %0, ptr noundef nonnull align 8 dereferenceable(24) %1, i32 noundef %2, i32 noundef %3, i32 noundef %4, i32 noundef %5, i32 noundef %6) local_unnamed_addr #0 align 2 {
  %8 = add i32 %2, -1
  %9 = add i32 %8, %3
  %10 = icmp slt i32 %2, 0
  %11 = icmp slt i32 %3, 1
  %or.cond = or i1 %10, %11
  br i1 %or.cond, label %39, label %12

12:                                               ; preds = %7
  %13 = icmp slt i32 %5, %2
  %14 = icmp slt i32 %9, %4
  %or.cond20 = and i1 %14, %13
  br i1 %or.cond20, label %39, label %15

15:                                               ; preds = %12
  %16 = load i32, ptr getelementptr inbounds (%struct.recent_settings_tag, ptr @recent, i64 0, i32 14), align 8
  %17 = icmp ult i32 %16, 4
  br i1 %17, label %switch.lookup, label %18

18:                                               ; preds = %15
  tail call void (ptr, i32, ptr, i64, ptr, ptr, ...) @ws_log_fatal_full(ptr noundef nonnull @.str.10, i32 noundef 7, ptr noundef nonnull @.str.11, i64 noundef 646, ptr noundef nonnull @__func__._ZN12ByteViewText17addHexFormatRangeER5QListIN11QTextLayout11FormatRangeEEiiiiNS_13HighlightModeE, ptr noundef nonnull @.str.12) #25
  unreachable

switch.lookup:                                    ; preds = %15
  %19 = zext nneg i32 %16 to i64
  %switch.gep = getelementptr inbounds [4 x i32], ptr @switch.table._ZN12ByteViewText17addHexFormatRangeER5QListIN11QTextLayout11FormatRangeEEiiiiNS_13HighlightModeE, i64 0, i64 %19
  %switch.load = load i32, ptr %switch.gep, align 4
  %20 = add nuw nsw i32 %switch.load, 1
  %.sroa.speculated30 = tail call i32 @llvm.smax.i32(i32 %4, i32 %2)
  %21 = sub i32 %.sroa.speculated30, %4
  %.sroa.speculated = tail call i32 @llvm.smin.i32(i32 %9, i32 %5)
  %22 = sub i32 %.sroa.speculated, %4
  %23 = getelementptr inbounds i8, ptr %0, i64 72
  %24 = load i64, ptr %23, align 8
  %25 = icmp sgt i64 %24, 65535
  %26 = select i1 %25, i32 11, i32 7
  %27 = load i32, ptr @_ZN12ByteViewText19separator_interval_E, align 4
  %28 = sdiv i32 %21, %27
  %29 = mul i32 %20, %21
  %30 = add i32 %28, %29
  %31 = add i32 %30, %26
  %32 = sdiv i32 %22, %27
  %33 = mul i32 %20, %22
  %34 = add i32 %33, %switch.load
  %35 = add i32 %34, %26
  %36 = add i32 %35, %32
  %37 = sub i32 %36, %31
  %38 = tail call noundef zeroext i1 @_ZN12ByteViewText14addFormatRangeER5QListIN11QTextLayout11FormatRangeEEiiNS_13HighlightModeE(ptr noundef nonnull align 8 dereferenceable(328) %0, ptr noundef nonnull align 8 dereferenceable(24) %1, i32 noundef %31, i32 noundef %37, i32 noundef %6)
  br label %39

39:                                               ; preds = %12, %7, %switch.lookup
  %.0 = phi i1 [ %38, %switch.lookup ], [ false, %7 ], [ false, %12 ]
  ret i1 %.0
}